target datalayout = "e-m:e-p270:32:32-p271:32:32-p272:64:64-i64:64-i128:128-f80:128-n8:16:32:64-S128"
target triple = "x86_64-pc-linux-gnu"

%"class.pbrt::Vector3" = type { %"class.pbrt::Tuple3" }
%"class.pbrt::Tuple3" = type { float, float, float }
%"class.pbrt::Point2" = type { %"class.pbrt::Tuple2" }
%"class.pbrt::Tuple2" = type { float, float }

@.str.10 = private unnamed_addr constant [116 x i8] c"generated/home/dtcxzyw/WorkSpace/Projects/compilers/llvm-opt-benchmark/bench/pbrt-v4/pbrt-v4/src/pbrt/util/math.cpp\00", align 1
@.str.16 = private unnamed_addr constant [17 x i8] c"Check failed: %s\00", align 1
@.str.17 = private unnamed_addr constant [45 x i8] c"p.x >= 0 && p.x <= 1 && p.y >= 0 && p.y <= 1\00", align 1

; Function Attrs: mustprogress nounwind uwtable
define linkonce_odr dso_local void @_ZN4pbrt6Tuple3INS_7Vector3EfEC2Efff(ptr noundef nonnull align 4 dereferenceable(12) %0, float noundef %1, float noundef %2, float noundef %3) unnamed_addr #6 comdat align 2 {
  %5 = alloca ptr, align 8
  %6 = alloca float, align 4
  %7 = alloca float, align 4
  %8 = alloca float, align 4
  store ptr %0, ptr %5, align 8, !tbaa !203
  store float %1, ptr %6, align 4, !tbaa !8
  store float %2, ptr %7, align 4, !tbaa !8
  store float %3, ptr %8, align 4, !tbaa !8
  %9 = load ptr, ptr %5, align 8
  %10 = getelementptr inbounds nuw %"class.pbrt::Tuple3", ptr %9, i32 0, i32 0
  %11 = load float, ptr %6, align 4, !tbaa !8
  store float %11, ptr %10, align 4, !tbaa !173
  %12 = getelementptr inbounds nuw %"class.pbrt::Tuple3", ptr %9, i32 0, i32 1
  %13 = load float, ptr %7, align 4, !tbaa !8
  store float %13, ptr %12, align 4, !tbaa !175
  %14 = getelementptr inbounds nuw %"class.pbrt::Tuple3", ptr %9, i32 0, i32 2
  %15 = load float, ptr %8, align 4, !tbaa !8
  store float %15, ptr %14, align 4, !tbaa !176
  br label %16

16:                                               ; preds = %4
  br label %17

17:                                               ; preds = %16
  ret void
}

; Function Attrs: inlinehint mustprogress nounwind uwtable
define linkonce_odr dso_local noundef float @_ZSt4sqrtf(float noundef %0) #10 comdat {
  %2 = alloca float, align 4
  store float %0, ptr %2, align 4, !tbaa !8
  %3 = load float, ptr %2, align 4, !tbaa !8
  %4 = call float @sqrtf(float noundef %3) #3, !tbaa !4
  ret float %4
}

; Function Attrs: inlinehint mustprogress nounwind uwtable
define linkonce_odr dso_local noundef nonnull align 4 dereferenceable(4) ptr @_ZSt3maxIfERKT_S2_S2_(ptr noundef nonnull align 4 dereferenceable(4) %0, ptr noundef nonnull align 4 dereferenceable(4) %1) #10 comdat {
  %3 = alloca ptr, align 8
  %4 = alloca ptr, align 8
  %5 = alloca ptr, align 8
  store ptr %0, ptr %4, align 8, !tbaa !18
  store ptr %1, ptr %5, align 8, !tbaa !18
  %6 = load ptr, ptr %4, align 8, !tbaa !18
  %7 = load float, ptr %6, align 4, !tbaa !8
  %8 = load ptr, ptr %5, align 8, !tbaa !18
  %9 = load float, ptr %8, align 4, !tbaa !8
  %10 = fcmp olt float %7, %9
  br i1 %10, label %11, label %13

11:                                               ; preds = %2
  %12 = load ptr, ptr %5, align 8, !tbaa !18
  store ptr %12, ptr %3, align 8
  br label %15

13:                                               ; preds = %2
  %14 = load ptr, ptr %4, align 8, !tbaa !18
  store ptr %14, ptr %3, align 8
  br label %15

15:                                               ; preds = %13, %11
  %16 = load ptr, ptr %3, align 8
  ret ptr %16
}

; Function Attrs: mustprogress nounwind uwtable
define linkonce_odr dso_local noundef float @_ZSt8copysignff(float noundef %0, float noundef %1) #6 comdat {
  %3 = alloca float, align 4
  %4 = alloca float, align 4
  store float %0, ptr %3, align 4, !tbaa !8
  store float %1, ptr %4, align 4, !tbaa !8
  %5 = load float, ptr %3, align 4, !tbaa !8
  %6 = load float, ptr %4, align 4, !tbaa !8
  %7 = call float @llvm.copysign.f32(float %5, float %6)
  ret float %7
}

; Function Attrs: mustprogress uwtable
define linkonce_odr dso_local void @_ZN4pbrt7Vector3IfEC2Efff(ptr noundef nonnull align 4 dereferenceable(12) %0, float noundef %1, float noundef %2, float noundef %3) unnamed_addr #4 comdat align 2 {
  %5 = alloca ptr, align 8
  %6 = alloca float, align 4
  %7 = alloca float, align 4
  %8 = alloca float, align 4
  store ptr %0, ptr %5, align 8, !tbaa !171
  store float %1, ptr %6, align 4, !tbaa !8
  store float %2, ptr %7, align 4, !tbaa !8
  store float %3, ptr %8, align 4, !tbaa !8
  %9 = load ptr, ptr %5, align 8
  %10 = load float, ptr %6, align 4, !tbaa !8
  %11 = load float, ptr %7, align 4, !tbaa !8
  %12 = load float, ptr %8, align 4, !tbaa !8
  call void @_ZN4pbrt6Tuple3INS_7Vector3EfEC2Efff(ptr noundef nonnull align 4 dereferenceable(12) %9, float noundef %10, float noundef %11, float noundef %12)
  ret void
}

; Function Attrs: inlinehint mustprogress uwtable
define linkonce_odr dso_local noundef float @_ZN4pbrt8SafeSqrtEf(float noundef %0) #7 comdat {
  %2 = alloca float, align 4
  %3 = alloca float, align 4
  store float %0, ptr %2, align 4, !tbaa !8
  br label %4

4:                                                ; preds = %1
  br label %5

5:                                                ; preds = %4
  call void @llvm.lifetime.start.p0(i64 4, ptr %3) #3
  store float 0.000000e+00, ptr %3, align 4, !tbaa !8
  %6 = call noundef nonnull align 4 dereferenceable(4) ptr @_ZSt3maxIfERKT_S2_S2_(ptr noundef nonnull align 4 dereferenceable(4) %3, ptr noundef nonnull align 4 dereferenceable(4) %2)
  %7 = load float, ptr %6, align 4, !tbaa !8
  %8 = call noundef float @_ZSt4sqrtf(float noundef %7)
  call void @llvm.lifetime.end.p0(i64 4, ptr %3) #3
  ret float %8
}

; Function Attrs: inlinehint mustprogress nounwind uwtable
define linkonce_odr dso_local noundef float @_ZSt3sinf(float noundef %0) #10 comdat {
  %2 = alloca float, align 4
  store float %0, ptr %2, align 4, !tbaa !8
  %3 = load float, ptr %2, align 4, !tbaa !8
  %4 = call float @sinf(float noundef %3) #3, !tbaa !4
  ret float %4
}

; Function Attrs: inlinehint mustprogress nounwind uwtable
define linkonce_odr dso_local noundef float @_ZSt3cosf(float noundef %0) #10 comdat {
  %2 = alloca float, align 4
  store float %0, ptr %2, align 4, !tbaa !8
  %3 = load float, ptr %2, align 4, !tbaa !8
  %4 = call float @cosf(float noundef %3) #3, !tbaa !4
  ret float %4
}

; Function Attrs: inlinehint mustprogress uwtable
define linkonce_odr dso_local noundef float @_ZN4pstd8copysignEff(float noundef %0, float noundef %1) #7 comdat {
  %3 = alloca float, align 4
  %4 = alloca float, align 4
  store float %0, ptr %3, align 4, !tbaa !8
  store float %1, ptr %4, align 4, !tbaa !8
  %5 = load float, ptr %3, align 4, !tbaa !8
  %6 = load float, ptr %4, align 4, !tbaa !8
  %7 = call noundef float @_ZSt8copysignff(float noundef %5, float noundef %6)
  ret float %7
}

; Function Attrs: inlinehint mustprogress nounwind uwtable
define linkonce_odr dso_local noundef float @_ZN4pbrt3SqrIfEET_S1_(float noundef %0) #10 comdat {
  %2 = alloca float, align 4
  store float %0, ptr %2, align 4, !tbaa !8
  %3 = load float, ptr %2, align 4, !tbaa !8
  %4 = load float, ptr %2, align 4, !tbaa !8
  %5 = fmul float %3, %4
  ret float %5
}

; Function Attrs: inlinehint mustprogress nounwind uwtable
define linkonce_odr dso_local noundef float @_ZSt3absf(float noundef %0) #10 comdat {
  %2 = alloca float, align 4
  store float %0, ptr %2, align 4, !tbaa !8
  %3 = load float, ptr %2, align 4, !tbaa !8
  %4 = call float @llvm.fabs.f32(float %3)
  ret float %4
}

; Function Attrs: mustprogress uwtable
define dso_local { <2 x float>, float } @_ZN4pbrt23EqualAreaSquareToSphereENS_6Point2IfEE(<2 x float> %0) #13 {
  %2 = alloca %"class.pbrt::Vector3", align 4
  %3 = alloca %"class.pbrt::Point2", align 4
  %4 = alloca float, align 4
  %5 = alloca float, align 4
  %6 = alloca float, align 4
  %7 = alloca float, align 4
  %8 = alloca float, align 4
  %9 = alloca float, align 4
  %10 = alloca float, align 4
  %11 = alloca float, align 4
  %12 = alloca float, align 4
  %13 = alloca float, align 4
  %14 = alloca float, align 4
  %15 = alloca { <2 x float>, float }, align 8
  %16 = getelementptr inbounds nuw %"class.pbrt::Point2", ptr %3, i32 0, i32 0
  store <2 x float> %0, ptr %16, align 4
  %17 = getelementptr inbounds nuw %"class.pbrt::Tuple2", ptr %3, i32 0, i32 0
  %18 = load float, ptr %17, align 4, !tbaa !168
  %19 = fcmp oge float %18, 0.000000e+00
  br i1 %19, label %20, label %32

20:                                               ; preds = %1
  %21 = getelementptr inbounds nuw %"class.pbrt::Tuple2", ptr %3, i32 0, i32 0
  %22 = load float, ptr %21, align 4, !tbaa !168
  %23 = fcmp ole float %22, 1.000000e+00
  br i1 %23, label %24, label %32

24:                                               ; preds = %20
  %25 = getelementptr inbounds nuw %"class.pbrt::Tuple2", ptr %3, i32 0, i32 1
  %26 = load float, ptr %25, align 4, !tbaa !170
  %27 = fcmp oge float %26, 0.000000e+00
  br i1 %27, label %28, label %32

28:                                               ; preds = %24
  %29 = getelementptr inbounds nuw %"class.pbrt::Tuple2", ptr %3, i32 0, i32 1
  %30 = load float, ptr %29, align 4, !tbaa !170
  %31 = fcmp ole float %30, 1.000000e+00
  br i1 %31, label %34, label %32

32:                                               ; preds = %28, %24, %20, %1
  call void @_ZN4pbrt8LogFatalIJRA45_KcEEEvNS_8LogLevelEPS1_iS5_DpOT_(i32 noundef 2, ptr noundef @.str.10, i32 noundef 293, ptr noundef @.str.16, ptr noundef nonnull align 1 dereferenceable(45) @.str.17) #21
  unreachable

33:                                               ; No predecessors!
  br label %34

34:                                               ; preds = %33, %28
  call void @llvm.lifetime.start.p0(i64 4, ptr %4) #3
  %35 = getelementptr inbounds nuw %"class.pbrt::Tuple2", ptr %3, i32 0, i32 0
  %36 = load float, ptr %35, align 4, !tbaa !168
  %37 = fmul float 2.000000e+00, %36
  %38 = fsub float %37, 1.000000e+00
  store float %38, ptr %4, align 4, !tbaa !8
  call void @llvm.lifetime.start.p0(i64 4, ptr %5) #3
  %39 = getelementptr inbounds nuw %"class.pbrt::Tuple2", ptr %3, i32 0, i32 1
  %40 = load float, ptr %39, align 4, !tbaa !170
  %41 = fmul float 2.000000e+00, %40
  %42 = fsub float %41, 1.000000e+00
  store float %42, ptr %5, align 4, !tbaa !8
  call void @llvm.lifetime.start.p0(i64 4, ptr %6) #3
  %43 = load float, ptr %4, align 4, !tbaa !8
  %44 = call noundef float @_ZSt3absf(float noundef %43)
  store float %44, ptr %6, align 4, !tbaa !8
  call void @llvm.lifetime.start.p0(i64 4, ptr %7) #3
  %45 = load float, ptr %5, align 4, !tbaa !8
  %46 = call noundef float @_ZSt3absf(float noundef %45)
  store float %46, ptr %7, align 4, !tbaa !8
  call void @llvm.lifetime.start.p0(i64 4, ptr %8) #3
  %47 = load float, ptr %6, align 4, !tbaa !8
  %48 = load float, ptr %7, align 4, !tbaa !8
  %49 = fadd float %47, %48
  %50 = fsub float 1.000000e+00, %49
  store float %50, ptr %8, align 4, !tbaa !8
  call void @llvm.lifetime.start.p0(i64 4, ptr %9) #3
  %51 = load float, ptr %8, align 4, !tbaa !8
  %52 = call noundef float @_ZSt3absf(float noundef %51)
  store float %52, ptr %9, align 4, !tbaa !8
  call void @llvm.lifetime.start.p0(i64 4, ptr %10) #3
  %53 = load float, ptr %9, align 4, !tbaa !8
  %54 = fsub float 1.000000e+00, %53
  store float %54, ptr %10, align 4, !tbaa !8
  call void @llvm.lifetime.start.p0(i64 4, ptr %11) #3
  %55 = load float, ptr %10, align 4, !tbaa !8
  %56 = fcmp oeq float %55, 0.000000e+00
  br i1 %56, label %57, label %58

57:                                               ; preds = %34
  br label %65

58:                                               ; preds = %34
  %59 = load float, ptr %7, align 4, !tbaa !8
  %60 = load float, ptr %6, align 4, !tbaa !8
  %61 = fsub float %59, %60
  %62 = load float, ptr %10, align 4, !tbaa !8
  %63 = fdiv float %61, %62
  %64 = fadd float %63, 1.000000e+00
  br label %65

65:                                               ; preds = %58, %57
  %66 = phi float [ 1.000000e+00, %57 ], [ %64, %58 ]
  %67 = fmul float %66, 0x400921FB60000000
  %68 = fdiv float %67, 4.000000e+00
  store float %68, ptr %11, align 4, !tbaa !8
  call void @llvm.lifetime.start.p0(i64 4, ptr %12) #3
  %69 = load float, ptr %10, align 4, !tbaa !8
  %70 = call noundef float @_ZN4pbrt3SqrIfEET_S1_(float noundef %69)
  %71 = fsub float 1.000000e+00, %70
  %72 = load float, ptr %8, align 4, !tbaa !8
  %73 = call noundef float @_ZN4pstd8copysignEff(float noundef %71, float noundef %72)
  store float %73, ptr %12, align 4, !tbaa !8
  call void @llvm.lifetime.start.p0(i64 4, ptr %13) #3
  %74 = load float, ptr %11, align 4, !tbaa !8
  %75 = call noundef float @_ZSt3cosf(float noundef %74)
  %76 = load float, ptr %4, align 4, !tbaa !8
  %77 = call noundef float @_ZN4pstd8copysignEff(float noundef %75, float noundef %76)
  store float %77, ptr %13, align 4, !tbaa !8
  call void @llvm.lifetime.start.p0(i64 4, ptr %14) #3
  %78 = load float, ptr %11, align 4, !tbaa !8
  %79 = call noundef float @_ZSt3sinf(float noundef %78)
  %80 = load float, ptr %5, align 4, !tbaa !8
  %81 = call noundef float @_ZN4pstd8copysignEff(float noundef %79, float noundef %80)
  store float %81, ptr %14, align 4, !tbaa !8
  %82 = load float, ptr %13, align 4, !tbaa !8
  %83 = load float, ptr %10, align 4, !tbaa !8
  %84 = fmul float %82, %83
  %85 = load float, ptr %10, align 4, !tbaa !8
  %86 = call noundef float @_ZN4pbrt3SqrIfEET_S1_(float noundef %85)
  %87 = fsub float 2.000000e+00, %86
  %88 = call noundef float @_ZN4pbrt8SafeSqrtEf(float noundef %87)
  %89 = fmul float %84, %88
  %90 = load float, ptr %14, align 4, !tbaa !8
  %91 = load float, ptr %10, align 4, !tbaa !8
  %92 = fmul float %90, %91
  %93 = load float, ptr %10, align 4, !tbaa !8
  %94 = call noundef float @_ZN4pbrt3SqrIfEET_S1_(float noundef %93)
  %95 = fsub float 2.000000e+00, %94
  %96 = call noundef float @_ZN4pbrt8SafeSqrtEf(float noundef %95)
  %97 = fmul float %92, %96
  %98 = load float, ptr %12, align 4, !tbaa !8
  call void @_ZN4pbrt7Vector3IfEC2Efff(ptr noundef nonnull align 4 dereferenceable(12) %2, float noundef %89, float noundef %97, float noundef %98)
  call void @llvm.lifetime.end.p0(i64 4, ptr %14) #3
  call void @llvm.lifetime.end.p0(i64 4, ptr %13) #3
  call void @llvm.lifetime.end.p0(i64 4, ptr %12) #3
  call void @llvm.lifetime.end.p0(i64 4, ptr %11) #3
  call void @llvm.lifetime.end.p0(i64 4, ptr %10) #3
  call void @llvm.lifetime.end.p0(i64 4, ptr %9) #3
  call void @llvm.lifetime.end.p0(i64 4, ptr %8) #3
  call void @llvm.lifetime.end.p0(i64 4, ptr %7) #3
  call void @llvm.lifetime.end.p0(i64 4, ptr %6) #3
  call void @llvm.lifetime.end.p0(i64 4, ptr %5) #3
  call void @llvm.lifetime.end.p0(i64 4, ptr %4) #3
  %99 = getelementptr inbounds nuw %"class.pbrt::Vector3", ptr %2, i32 0, i32 0
  call void @llvm.memcpy.p0.p0.i64(ptr align 8 %15, ptr align 4 %99, i64 12, i1 false)
  %100 = load { <2 x float>, float }, ptr %15, align 8
  ret { <2 x float>, float } %100
}