; Function Attrs: mustprogress uwtable
define dso_local { <2 x float>, float } @_ZN4pbrt23EqualAreaSquareToSphereENS_6Point2IfEE(<2 x float> %0) local_unnamed_addr #12 {
  %.sroa.031.0.vec.extract = extractelement <2 x float> %0, i64 0
  %2 = fcmp oge float %.sroa.031.0.vec.extract, 0.000000e+00
  %3 = fcmp ole float %.sroa.031.0.vec.extract, 1.000000e+00
  %or.cond = and i1 %2, %3
  %.sroa.031.4.vec.extract37 = extractelement <2 x float> %0, i64 1
  %4 = fcmp oge float %.sroa.031.4.vec.extract37, 0.000000e+00
  %5 = fcmp ole float %.sroa.031.4.vec.extract37, 1.000000e+00
  %6 = and i1 %4, %5
  %or.cond8 = select i1 %or.cond, i1 %6, i1 false
  br i1 %or.cond8, label %8, label %7

7:                                                ; preds = %1
  tail call void @_ZN4pbrt8LogFatalIJRA45_KcEEEvNS_8LogLevelEPS1_iS5_DpOT_(i32 noundef 2, ptr noundef nonnull @.str.10, i32 noundef 293, ptr noundef nonnull @.str.16, ptr noundef nonnull align 1 dereferenceable(45) @.str.17) #28
  unreachable

8:                                                ; preds = %1
  %9 = fmul float %.sroa.031.0.vec.extract, 2.000000e+00
  %10 = fadd float %9, -1.000000e+00
  %11 = fmul float %.sroa.031.4.vec.extract37, 2.000000e+00
  %12 = fadd float %11, -1.000000e+00
  %13 = tail call noundef float @llvm.fabs.f32(float %10)
  %14 = tail call noundef float @llvm.fabs.f32(float %12)
  %15 = fadd float %13, %14
  %16 = fsub float 1.000000e+00, %15
  %17 = tail call noundef float @llvm.fabs.f32(float %16)
  %18 = fsub float 1.000000e+00, %17
  %19 = fcmp oeq float %18, 0.000000e+00
  br i1 %19, label %26, label %20

20:                                               ; preds = %8
  %21 = fsub float %14, %13
  %22 = fdiv float %21, %18
  %23 = fadd float %22, 1.000000e+00
  %24 = fmul float %23, 0x400921FB60000000
  %25 = fmul float %24, 2.500000e-01
  br label %26

26:                                               ; preds = %8, %20
  %27 = phi float [ %25, %20 ], [ 0x3FE921FB60000000, %8 ]
  %28 = fmul float %18, %18
  %29 = fsub float 1.000000e+00, %28
  %30 = tail call noundef float @llvm.copysign.f32(float %29, float %16)
  %31 = tail call noundef float @cosf(float noundef %27) #27, !tbaa !8
  %32 = tail call noundef float @llvm.copysign.f32(float %31, float %10)
  %33 = tail call noundef float @sinf(float noundef %27) #27, !tbaa !8
  %34 = tail call noundef float @llvm.copysign.f32(float %33, float %12)
  %35 = fmul float %18, %32
  %36 = fsub float 2.000000e+00, %28
  %37 = fcmp ogt float %36, 0.000000e+00
  %.sroa.speculated.i = select i1 %37, float %36, float 0.000000e+00
  %sqrt.i = tail call noundef float @llvm.sqrt.f32(float %.sroa.speculated.i)
  %38 = fmul float %sqrt.i, %35
  %39 = fmul float %18, %34
  %40 = fmul float %sqrt.i, %39
  %.sroa.0.0.vec.insert = insertelement <2 x float> poison, float %38, i64 0
  %.sroa.0.4.vec.insert = insertelement <2 x float> %.sroa.0.0.vec.insert, float %40, i64 1
  %.fca.0.insert = insertvalue { <2 x float>, float } poison, <2 x float> %.sroa.0.4.vec.insert, 0
  %.fca.1.insert = insertvalue { <2 x float>, float } %.fca.0.insert, float %30, 1
  ret { <2 x float>, float } %.fca.1.insert
}